target datalayout = "e-m:e-p270:32:32-p271:32:32-p272:64:64-i64:64-i128:128-f80:128-n8:16:32:64-S128"
target triple = "x86_64-unknown-linux-gnu"

%"class.icu_75::UTF8CollationIterator" = type { %"class.icu_75::CollationIterator.base", ptr, i32, i32 }
%"class.icu_75::CollationIterator.base" = type <{ %"class.icu_75::UObject", ptr, ptr, %"class.icu_75::CollationIterator::CEBuffer", i32, [4 x i8], ptr, i32, i8 }>
%"class.icu_75::UObject" = type { ptr }
%"class.icu_75::CollationIterator::CEBuffer" = type { i32, %"class.icu_75::MaybeStackArray.0" }
%"class.icu_75::MaybeStackArray.0" = type { ptr, i32, i8, [40 x i64] }

; Function Attrs: mustprogress uwtable
define noundef i32 @_ZN6icu_7521UTF8CollationIterator17previousCodePointER10UErrorCode(ptr noundef nonnull align 8 dereferenceable(408) %this, ptr noundef nonnull align 4 dereferenceable(4) %0) unnamed_addr #1 align 2 {
entry:
  %retval = alloca i32, align 4
  %this.addr = alloca ptr, align 8
  %.addr = alloca ptr, align 8
  %c = alloca i32, align 4
  store ptr %this, ptr %this.addr, align 8
  store ptr %0, ptr %.addr, align 8
  %this1 = load ptr, ptr %this.addr, align 8
  %pos = getelementptr inbounds %"class.icu_75::UTF8CollationIterator", ptr %this1, i32 0, i32 2
  %1 = load i32, ptr %pos, align 8
  %cmp = icmp eq i32 %1, 0
  br i1 %cmp, label %if.then, label %if.end

if.then:                                          ; preds = %entry
  store i32 -1, ptr %retval, align 4
  br label %return

if.end:                                           ; preds = %entry
  br label %do.body

do.body:                                          ; preds = %if.end
  %u8 = getelementptr inbounds %"class.icu_75::UTF8CollationIterator", ptr %this1, i32 0, i32 1
  %2 = load ptr, ptr %u8, align 8
  %pos2 = getelementptr inbounds %"class.icu_75::UTF8CollationIterator", ptr %this1, i32 0, i32 2
  %3 = load i32, ptr %pos2, align 8
  %dec = add nsw i32 %3, -1
  store i32 %dec, ptr %pos2, align 8
  %idxprom = sext i32 %dec to i64
  %arrayidx = getelementptr inbounds i8, ptr %2, i64 %idxprom
  %4 = load i8, ptr %arrayidx, align 1
  %conv = zext i8 %4 to i32
  store i32 %conv, ptr %c, align 4
  %5 = load i32, ptr %c, align 4
  %and = and i32 %5, 128
  %cmp3 = icmp eq i32 %and, 0
  br i1 %cmp3, label %if.end7, label %if.then4

if.then4:                                         ; preds = %do.body
  %u85 = getelementptr inbounds %"class.icu_75::UTF8CollationIterator", ptr %this1, i32 0, i32 1
  %6 = load ptr, ptr %u85, align 8
  %pos6 = getelementptr inbounds %"class.icu_75::UTF8CollationIterator", ptr %this1, i32 0, i32 2
  %7 = load i32, ptr %c, align 4
  %call = call i32 @utf8_prevCharSafeBody_75(ptr noundef %6, i32 noundef 0, ptr noundef %pos6, i32 noundef %7, i8 noundef signext -3)
  store i32 %call, ptr %c, align 4
  br label %if.end7

if.end7:                                          ; preds = %if.then4, %do.body
  br label %do.end

do.end:                                           ; preds = %if.end7
  %8 = load i32, ptr %c, align 4
  store i32 %8, ptr %retval, align 4
  br label %return

return:                                           ; preds = %do.end, %if.then
  %9 = load i32, ptr %retval, align 4
  ret i32 %9
}