; Function Attrs: mustprogress uwtable
define noundef i32 @_ZN6icu_7521UTF8CollationIterator17previousCodePointER10UErrorCode(ptr noundef nonnull align 8 dereferenceable(408) %this, ptr nocapture nonnull readnone align 4 %0) unnamed_addr #1 align 2 {
entry:
  %pos = getelementptr inbounds i8, ptr %this, i64 400
  %1 = load i32, ptr %pos, align 8
  %cmp = icmp eq i32 %1, 0
  br i1 %cmp, label %return, label %do.body

do.body:                                          ; preds = %entry
  %u8 = getelementptr inbounds i8, ptr %this, i64 392
  %2 = load ptr, ptr %u8, align 8
  %dec = add nsw i32 %1, -1
  store i32 %dec, ptr %pos, align 8
  %idxprom = sext i32 %dec to i64
  %arrayidx = getelementptr inbounds i8, ptr %2, i64 %idxprom
  %3 = load i8, ptr %arrayidx, align 1
  %conv = zext i8 %3 to i32
  %cmp3 = icmp sgt i8 %3, -1
  br i1 %cmp3, label %return, label %if.then4

if.then4:                                         ; preds = %do.body
  %call = tail call i32 @utf8_prevCharSafeBody_75(ptr noundef nonnull %2, i32 noundef 0, ptr noundef nonnull %pos, i32 noundef %conv, i8 noundef signext -3)
  br label %return

return:                                           ; preds = %if.then4, %do.body, %entry
  %retval.0 = phi i32 [ -1, %entry ], [ %conv, %do.body ], [ %call, %if.then4 ]
  ret i32 %retval.0
}